; Function Attrs: nounwind uwtable
define ptr @Cudd_bddNewVar(ptr noundef %0) local_unnamed_addr #0 {
  %2 = getelementptr inbounds nuw i8, ptr %0, i64 136
  %3 = load i32, ptr %2, align 8
  %4 = icmp ugt i32 %3, 2147483645
  br i1 %4, label %12, label %5

5:                                                ; preds = %1
  %6 = getelementptr inbounds nuw i8, ptr %0, i64 40
  %7 = load ptr, ptr %6, align 8
  %8 = ptrtoint ptr %7 to i64
  %9 = xor i64 %8, 1
  %10 = inttoptr i64 %9 to ptr
  %11 = tail call ptr @cuddUniqueInter(ptr noundef nonnull %0, i32 noundef %3, ptr noundef %7, ptr noundef %10) #20
  br label %12

12:                                               ; preds = %1, %5
  %.0 = phi ptr [ %11, %5 ], [ null, %1 ]
  ret ptr %.0
}